target datalayout = "e-m:e-p270:32:32-p271:32:32-p272:64:64-i64:64-i128:128-f80:128-n8:16:32:64-S128"
target triple = "x86_64-pc-linux-gnu"

%"class.icu_77::CollationFastLatinBuilder" = type <{ %"class.icu_77::UObject", i64, i64, [448 x [2 x i64]], %"class.icu_77::UVector64", %"class.icu_77::UVector64", ptr, [4 x i32], i32, i32, i32, i32, i8, [7 x i8], %"class.icu_77::UnicodeString", i32, [4 x i8] }>
%"class.icu_77::UObject" = type { ptr }
%"class.icu_77::UVector64" = type { %"class.icu_77::UObject", i32, i32, i32, ptr }
%"class.icu_77::UnicodeString" = type { %"class.icu_77::Replaceable", %"union.icu_77::UnicodeString::StackBufferOrFields" }
%"class.icu_77::Replaceable" = type { %"class.icu_77::UObject" }
%"union.icu_77::UnicodeString::StackBufferOrFields" = type { %struct.anon.0, [32 x i8] }
%struct.anon.0 = type { i16, i32, i32, ptr }

; Function Attrs: mustprogress nounwind uwtable
define internal noundef i32 @_ZN6icu_7712_GLOBAL__N_122compareInt64AsUnsignedEll(i64 noundef %0, i64 noundef %1) #5 {
  %3 = alloca i32, align 4
  %4 = alloca i64, align 8
  %5 = alloca i64, align 8
  store i64 %0, ptr %4, align 8, !tbaa !51
  store i64 %1, ptr %5, align 8, !tbaa !51
  %6 = load i64, ptr %4, align 8, !tbaa !51
  %7 = load i64, ptr %5, align 8, !tbaa !51
  %8 = icmp ult i64 %6, %7
  br i1 %8, label %9, label %10

9:                                                ; preds = %2
  store i32 -1, ptr %3, align 4
  br label %16

10:                                               ; preds = %2
  %11 = load i64, ptr %4, align 8, !tbaa !51
  %12 = load i64, ptr %5, align 8, !tbaa !51
  %13 = icmp ugt i64 %11, %12
  br i1 %13, label %14, label %15

14:                                               ; preds = %10
  store i32 1, ptr %3, align 4
  br label %16

15:                                               ; preds = %10
  store i32 0, ptr %3, align 4
  br label %16

16:                                               ; preds = %15, %14, %9
  %17 = load i32, ptr %3, align 4
  ret i32 %17
}

; Function Attrs: mustprogress uwtable
define internal noundef i32 @_ZN6icu_7712_GLOBAL__N_112binarySearchEPKlil(ptr noundef %0, i32 noundef %1, i64 noundef %2) #0 {
  %4 = alloca i32, align 4
  %5 = alloca ptr, align 8
  %6 = alloca i32, align 4
  %7 = alloca i64, align 8
  %8 = alloca i32, align 4
  %9 = alloca i32, align 4
  %10 = alloca i32, align 4
  %11 = alloca i32, align 4
  store ptr %0, ptr %5, align 8, !tbaa !72
  store i32 %1, ptr %6, align 4, !tbaa !38
  store i64 %2, ptr %7, align 8, !tbaa !51
  %12 = load i32, ptr %6, align 4, !tbaa !38
  %13 = icmp eq i32 %12, 0
  br i1 %13, label %14, label %15

14:                                               ; preds = %3
  store i32 -1, ptr %4, align 4
  br label %60

15:                                               ; preds = %3
  call void @llvm.lifetime.start.p0(i64 4, ptr %8) #9
  store i32 0, ptr %8, align 4, !tbaa !38
  br label %16

16:                                               ; preds = %58, %15
  call void @llvm.lifetime.start.p0(i64 4, ptr %9) #9
  %17 = load i32, ptr %8, align 4, !tbaa !38
  %18 = load i32, ptr %6, align 4, !tbaa !38
  %19 = add nsw i32 %17, %18
  %20 = sdiv i32 %19, 2
  store i32 %20, ptr %9, align 4, !tbaa !38
  call void @llvm.lifetime.start.p0(i64 4, ptr %10) #9
  %21 = load i64, ptr %7, align 8, !tbaa !51
  %22 = load ptr, ptr %5, align 8, !tbaa !72
  %23 = load i32, ptr %9, align 4, !tbaa !38
  %24 = sext i32 %23 to i64
  %25 = getelementptr inbounds i64, ptr %22, i64 %24
  %26 = load i64, ptr %25, align 8, !tbaa !51
  %27 = call noundef i32 @_ZN6icu_7712_GLOBAL__N_122compareInt64AsUnsignedEll(i64 noundef %21, i64 noundef %26)
  store i32 %27, ptr %10, align 4, !tbaa !38
  %28 = load i32, ptr %10, align 4, !tbaa !38
  %29 = icmp eq i32 %28, 0
  br i1 %29, label %30, label %32

30:                                               ; preds = %16
  %31 = load i32, ptr %9, align 4, !tbaa !38
  store i32 %31, ptr %4, align 4
  store i32 1, ptr %11, align 4
  br label %56

32:                                               ; preds = %16
  %33 = load i32, ptr %10, align 4, !tbaa !38
  %34 = icmp slt i32 %33, 0
  br i1 %34, label %35, label %44

35:                                               ; preds = %32
  %36 = load i32, ptr %9, align 4, !tbaa !38
  %37 = load i32, ptr %8, align 4, !tbaa !38
  %38 = icmp eq i32 %36, %37
  br i1 %38, label %39, label %42

39:                                               ; preds = %35
  %40 = load i32, ptr %8, align 4, !tbaa !38
  %41 = xor i32 %40, -1
  store i32 %41, ptr %4, align 4
  store i32 1, ptr %11, align 4
  br label %56

42:                                               ; preds = %35
  %43 = load i32, ptr %9, align 4, !tbaa !38
  store i32 %43, ptr %6, align 4, !tbaa !38
  br label %54

44:                                               ; preds = %32
  %45 = load i32, ptr %9, align 4, !tbaa !38
  %46 = load i32, ptr %8, align 4, !tbaa !38
  %47 = icmp eq i32 %45, %46
  br i1 %47, label %48, label %52

48:                                               ; preds = %44
  %49 = load i32, ptr %8, align 4, !tbaa !38
  %50 = add nsw i32 %49, 1
  %51 = xor i32 %50, -1
  store i32 %51, ptr %4, align 4
  store i32 1, ptr %11, align 4
  br label %56

52:                                               ; preds = %44
  %53 = load i32, ptr %9, align 4, !tbaa !38
  store i32 %53, ptr %8, align 4, !tbaa !38
  br label %54

54:                                               ; preds = %52, %42
  br label %55

55:                                               ; preds = %54
  store i32 0, ptr %11, align 4
  br label %56

56:                                               ; preds = %55, %48, %39, %30
  call void @llvm.lifetime.end.p0(i64 4, ptr %10) #9
  call void @llvm.lifetime.end.p0(i64 4, ptr %9) #9
  %57 = load i32, ptr %11, align 4
  switch i32 %57, label %59 [
    i32 0, label %58
  ]

58:                                               ; preds = %56
  br label %16, !llvm.loop !90

59:                                               ; preds = %56
  call void @llvm.lifetime.end.p0(i64 4, ptr %8) #9
  br label %60

60:                                               ; preds = %59, %14
  %61 = load i32, ptr %4, align 4
  ret i32 %61
}

; Function Attrs: inlinehint mustprogress nounwind uwtable
define linkonce_odr noundef i32 @_ZNK6icu_779UVector644sizeEv(ptr noundef nonnull align 8 dereferenceable(32) %0) #1 comdat align 2 {
  %2 = alloca ptr, align 8
  store ptr %0, ptr %2, align 8, !tbaa !73
  %3 = load ptr, ptr %2, align 8
  %4 = getelementptr inbounds nuw %"class.icu_77::UVector64", ptr %3, i32 0, i32 1
  %5 = load i32, ptr %4, align 8, !tbaa !75
  ret i32 %5
}

; Function Attrs: inlinehint mustprogress nounwind uwtable
define linkonce_odr noundef ptr @_ZNK6icu_779UVector649getBufferEv(ptr noundef nonnull align 8 dereferenceable(32) %0) #1 comdat align 2 {
  %2 = alloca ptr, align 8
  store ptr %0, ptr %2, align 8, !tbaa !73
  %3 = load ptr, ptr %2, align 8
  %4 = getelementptr inbounds nuw %"class.icu_77::UVector64", ptr %3, i32 0, i32 4
  %5 = load ptr, ptr %4, align 8, !tbaa !76
  ret ptr %5
}

; Function Attrs: mustprogress uwtable
define noundef i32 @_ZNK6icu_7725CollationFastLatinBuilder9getMiniCEEl(ptr noundef nonnull align 8 dereferenceable(7372) %0, i64 noundef %1) #0 align 2 {
  %3 = alloca ptr, align 8
  %4 = alloca i64, align 8
  %5 = alloca i32, align 4
  store ptr %0, ptr %3, align 8, !tbaa !3
  store i64 %1, ptr %4, align 8, !tbaa !51
  %6 = load ptr, ptr %3, align 8
  %7 = load i64, ptr %4, align 8, !tbaa !51
  %8 = and i64 %7, -49153
  store i64 %8, ptr %4, align 8, !tbaa !51
  call void @llvm.lifetime.start.p0(i64 4, ptr %5) #9
  %9 = getelementptr inbounds nuw %"class.icu_77::CollationFastLatinBuilder", ptr %6, i32 0, i32 5
  %10 = call noundef ptr @_ZNK6icu_779UVector649getBufferEv(ptr noundef nonnull align 8 dereferenceable(32) %9)
  %11 = getelementptr inbounds nuw %"class.icu_77::CollationFastLatinBuilder", ptr %6, i32 0, i32 5
  %12 = call noundef i32 @_ZNK6icu_779UVector644sizeEv(ptr noundef nonnull align 8 dereferenceable(32) %11)
  %13 = load i64, ptr %4, align 8, !tbaa !51
  %14 = call noundef i32 @_ZN6icu_7712_GLOBAL__N_112binarySearchEPKlil(ptr noundef %10, i32 noundef %12, i64 noundef %13)
  store i32 %14, ptr %5, align 4, !tbaa !38
  %15 = getelementptr inbounds nuw %"class.icu_77::CollationFastLatinBuilder", ptr %6, i32 0, i32 6
  %16 = load ptr, ptr %15, align 8, !tbaa !22
  %17 = load i32, ptr %5, align 4, !tbaa !38
  %18 = sext i32 %17 to i64
  %19 = getelementptr inbounds i16, ptr %16, i64 %18
  %20 = load i16, ptr %19, align 2, !tbaa !54
  %21 = zext i16 %20 to i32
  call void @llvm.lifetime.end.p0(i64 4, ptr %5) #9
  ret i32 %21
}