; Function Attrs: mustprogress nofree norecurse nosync nounwind willreturn memory(read, inaccessiblemem: none) uwtable
define noundef range(i32 0, 65536) i32 @_ZNK6icu_7725CollationFastLatinBuilder9getMiniCEEl(ptr noundef nonnull readonly align 8 captures(none) dereferenceable(7372) %0, i64 noundef %1) local_unnamed_addr #9 align 2 {
  %3 = and i64 %1, -49153
  %4 = getelementptr inbounds nuw i8, ptr %0, i64 7248
  %5 = load ptr, ptr %4, align 8, !tbaa !46
  %6 = getelementptr inbounds nuw i8, ptr %0, i64 7232
  %7 = load i32, ptr %6, align 8, !tbaa !45
  %8 = icmp eq i32 %7, 0
  br i1 %8, label %_ZN6icu_7712_GLOBAL__N_112binarySearchEPKlil.exit, label %.preheader.i

.preheader.i:                                     ; preds = %2
  %9 = sdiv i32 %7, 2
  %10 = sext i32 %9 to i64
  %11 = getelementptr inbounds i64, ptr %5, i64 %10
  %12 = load i64, ptr %11, align 8, !tbaa !47
  %13 = icmp eq i64 %3, %12
  br i1 %13, label %_ZN6icu_7712_GLOBAL__N_112binarySearchEPKlil.exit, label %.lr.ph.i

.lr.ph.i:                                         ; preds = %.preheader.i, %24
  %14 = phi i64 [ %29, %24 ], [ %12, %.preheader.i ]
  %15 = phi i32 [ %26, %24 ], [ %9, %.preheader.i ]
  %.01938.i = phi i32 [ %.120.i, %24 ], [ %7, %.preheader.i ]
  %.02237.i = phi i32 [ %.123.i, %24 ], [ 0, %.preheader.i ]
  %16 = icmp ult i64 %3, %14
  %17 = icmp eq i32 %15, %.02237.i
  br i1 %16, label %18, label %21

18:                                               ; preds = %.lr.ph.i
  br i1 %17, label %19, label %24

19:                                               ; preds = %18
  %20 = xor i32 %15, -1
  br label %_ZN6icu_7712_GLOBAL__N_112binarySearchEPKlil.exit

21:                                               ; preds = %.lr.ph.i
  br i1 %17, label %22, label %24

22:                                               ; preds = %21
  %23 = sub nsw i32 -2, %15
  br label %_ZN6icu_7712_GLOBAL__N_112binarySearchEPKlil.exit

24:                                               ; preds = %21, %18
  %.123.i = phi i32 [ %.02237.i, %18 ], [ %15, %21 ]
  %.120.i = phi i32 [ %15, %18 ], [ %.01938.i, %21 ]
  %25 = add nsw i32 %.120.i, %.123.i
  %26 = sdiv i32 %25, 2
  %27 = sext i32 %26 to i64
  %28 = getelementptr inbounds i64, ptr %5, i64 %27
  %29 = load i64, ptr %28, align 8, !tbaa !47
  %30 = icmp eq i64 %3, %29
  br i1 %30, label %_ZN6icu_7712_GLOBAL__N_112binarySearchEPKlil.exit, label %.lr.ph.i, !llvm.loop !53

_ZN6icu_7712_GLOBAL__N_112binarySearchEPKlil.exit: ; preds = %24, %2, %.preheader.i, %19, %22
  %.018.i = phi i32 [ -1, %2 ], [ %23, %22 ], [ %20, %19 ], [ %9, %.preheader.i ], [ %26, %24 ]
  %31 = getelementptr inbounds nuw i8, ptr %0, i64 7256
  %32 = load ptr, ptr %31, align 8, !tbaa !6
  %33 = sext i32 %.018.i to i64
  %34 = getelementptr inbounds i16, ptr %32, i64 %33
  %35 = load i16, ptr %34, align 2, !tbaa !49
  %36 = zext i16 %35 to i32
  ret i32 %36
}